; Function Attrs: mustprogress nounwind uwtable
define internal void @_ZN4node9inspector8protocol4cbor12_GLOBAL__N_111CBOREncoderINSt7__cxx1112basic_stringIcSt11char_traitsIcESaIcEEEED0Ev(ptr noundef nonnull align 8 dereferenceable(48) %this) unnamed_addr #1 align 2 {
entry:
  store ptr getelementptr inbounds ({ [16 x ptr] }, ptr @_ZTVN4node9inspector8protocol4cbor12_GLOBAL__N_111CBOREncoderINSt7__cxx1112basic_stringIcSt11char_traitsIcESaIcEEEEE, i64 0, i32 0, i64 2), ptr %this, align 8
  %envelopes_.i = getelementptr inbounds i8, ptr %this, i64 16
  %0 = load ptr, ptr %envelopes_.i, align 8
  %tobool.not.i.i.i.i = icmp eq ptr %0, null
  br i1 %tobool.not.i.i.i.i, label %_ZN4node9inspector8protocol4cbor12_GLOBAL__N_111CBOREncoderINSt7__cxx1112basic_stringIcSt11char_traitsIcESaIcEEEED2Ev.exit, label %if.then.i.i.i.i

if.then.i.i.i.i:                                  ; preds = %entry
  tail call void @_ZdlPv(ptr noundef nonnull %0) #28
  br label %_ZN4node9inspector8protocol4cbor12_GLOBAL__N_111CBOREncoderINSt7__cxx1112basic_stringIcSt11char_traitsIcESaIcEEEED2Ev.exit

_ZN4node9inspector8protocol4cbor12_GLOBAL__N_111CBOREncoderINSt7__cxx1112basic_stringIcSt11char_traitsIcESaIcEEEED2Ev.exit: ; preds = %entry, %if.then.i.i.i.i
  tail call void @_ZdlPv(ptr noundef nonnull %this) #28
  ret void
}